; Function Attrs: mustprogress uwtable
define noundef double @_ZNK35colvarbias_restraint_harmonic_walls19restraint_potentialEm(ptr noundef nonnull align 8 dereferenceable(120) %0, i64 noundef %1) unnamed_addr #4 align 2 {
  %3 = load ptr, ptr %0, align 8
  %4 = getelementptr inbounds i8, ptr %3, i64 104
  %5 = load ptr, ptr %4, align 8
  %6 = tail call noundef double %5(ptr noundef nonnull align 8 dereferenceable(120) %0, i64 noundef %1)
  %7 = fcmp ogt double %6, 0.000000e+00
  %.in.v = select i1 %7, i64 112, i64 104
  %.in = getelementptr inbounds i8, ptr %0, i64 %.in.v
  %8 = load double, ptr %.in, align 8
  %9 = load ptr, ptr %0, align 8
  %10 = getelementptr i8, ptr %9, i64 -152
  %11 = load i64, ptr %10, align 8
  %12 = getelementptr inbounds i8, ptr %0, i64 %11
  %13 = getelementptr inbounds i8, ptr %12, i64 8
  %14 = load double, ptr %13, align 8
  %15 = fmul double %14, 5.000000e-01
  %16 = fmul double %8, %15
  %17 = getelementptr i8, ptr %9, i64 -24
  %18 = load i64, ptr %17, align 8
  %19 = getelementptr inbounds i8, ptr %0, i64 %18
  %20 = getelementptr inbounds i8, ptr %19, i64 152
  %sext = shl i64 %1, 32
  %21 = ashr exact i64 %sext, 32
  %22 = load ptr, ptr %20, align 8
  %23 = getelementptr inbounds ptr, ptr %22, i64 %21
  %24 = load ptr, ptr %23, align 8
  %25 = getelementptr inbounds i8, ptr %24, i64 472
  %26 = load double, ptr %25, align 8
  %27 = fmul double %26, %26
  %28 = fdiv double %16, %27
  %29 = fmul double %6, %28
  %30 = fmul double %6, %29
  ret double %30
}